target datalayout = "e-m:e-p270:32:32-p271:32:32-p272:64:64-i64:64-i128:128-f80:128-n8:16:32:64-S128"
target triple = "x86_64-pc-linux-gnu"

%struct.Aig_Man_t_ = type { ptr, ptr, ptr, ptr, ptr, ptr, ptr, %struct.Aig_Obj_t_, i32, i32, i32, i32, i32, i32, [7 x i32], i32, ptr, i32, ptr, i32, ptr, i32, i32, i32, ptr, i32, i32, i32, i32, i32, ptr, ptr, i32, ptr, ptr, i32, ptr, ptr, i32, i32, i32, ptr, ptr, ptr, ptr, ptr, ptr, ptr, ptr, ptr, ptr, ptr, ptr, ptr, ptr, i32, ptr, ptr, ptr, ptr, i32, i64, i64, i64, ptr, ptr }
%struct.Aig_Obj_t_ = type { %union.anon, ptr, ptr, i64, i32, i32, %union.anon.0 }
%union.anon = type { ptr }
%union.anon.0 = type { ptr }
%struct.Cnf_Dat_t_ = type { ptr, i32, i32, i32, ptr, ptr, ptr, ptr, ptr, ptr }
%struct.Vec_Ptr_t_ = type { i32, i32, ptr }

; Function Attrs: inlinehint nounwind uwtable
define internal i32 @toLitCond(i32 noundef %0, i32 noundef %1) #5 {
  %3 = alloca i32, align 4
  %4 = alloca i32, align 4
  store i32 %0, ptr %3, align 4, !tbaa !20
  store i32 %1, ptr %4, align 4, !tbaa !20
  %5 = load i32, ptr %3, align 4, !tbaa !20
  %6 = load i32, ptr %3, align 4, !tbaa !20
  %7 = add nsw i32 %5, %6
  %8 = load i32, ptr %4, align 4, !tbaa !20
  %9 = icmp ne i32 %8, 0
  %10 = zext i1 %9 to i32
  %11 = add nsw i32 %7, %10
  ret i32 %11
}

; Function Attrs: inlinehint nounwind uwtable
define internal ptr @Vec_PtrEntry(ptr noundef %0, i32 noundef %1) #5 {
  %3 = alloca ptr, align 8
  %4 = alloca i32, align 4
  store ptr %0, ptr %3, align 8, !tbaa !50
  store i32 %1, ptr %4, align 4, !tbaa !20
  %5 = load ptr, ptr %3, align 8, !tbaa !50
  %6 = getelementptr inbounds nuw %struct.Vec_Ptr_t_, ptr %5, i32 0, i32 2
  %7 = load ptr, ptr %6, align 8, !tbaa !53
  %8 = load i32, ptr %4, align 4, !tbaa !20
  %9 = sext i32 %8 to i64
  %10 = getelementptr inbounds ptr, ptr %7, i64 %9
  %11 = load ptr, ptr %10, align 8, !tbaa !54
  ret ptr %11
}

; Function Attrs: inlinehint nounwind uwtable
define internal i32 @Vec_PtrSize(ptr noundef %0) #5 {
  %2 = alloca ptr, align 8
  store ptr %0, ptr %2, align 8, !tbaa !50
  %3 = load ptr, ptr %2, align 8, !tbaa !50
  %4 = getelementptr inbounds nuw %struct.Vec_Ptr_t_, ptr %3, i32 0, i32 1
  %5 = load i32, ptr %4, align 4, !tbaa !51
  ret i32 %5
}

; Function Attrs: nounwind uwtable
define i32 @Cnf_DataWriteAndClauses(ptr noundef %0, ptr noundef %1) #0 {
  %3 = alloca i32, align 4
  %4 = alloca ptr, align 8
  %5 = alloca ptr, align 8
  %6 = alloca ptr, align 8
  %7 = alloca ptr, align 8
  %8 = alloca i32, align 4
  %9 = alloca i32, align 4
  %10 = alloca i32, align 4
  store ptr %0, ptr %4, align 8, !tbaa !54
  store ptr %1, ptr %5, align 8, !tbaa !32
  call void @llvm.lifetime.start.p0(i64 8, ptr %6) #11
  %11 = load ptr, ptr %4, align 8, !tbaa !54
  store ptr %11, ptr %6, align 8, !tbaa !96
  call void @llvm.lifetime.start.p0(i64 8, ptr %7) #11
  call void @llvm.lifetime.start.p0(i64 4, ptr %8) #11
  call void @llvm.lifetime.start.p0(i64 4, ptr %9) #11
  store i32 0, ptr %8, align 4, !tbaa !20
  br label %12

12:                                               ; preds = %48, %2
  %13 = load i32, ptr %8, align 4, !tbaa !20
  %14 = load ptr, ptr %5, align 8, !tbaa !32
  %15 = getelementptr inbounds nuw %struct.Cnf_Dat_t_, ptr %14, i32 0, i32 0
  %16 = load ptr, ptr %15, align 8, !tbaa !55
  %17 = getelementptr inbounds nuw %struct.Aig_Man_t_, ptr %16, i32 0, i32 3
  %18 = load ptr, ptr %17, align 8, !tbaa !106
  %19 = call i32 @Vec_PtrSize(ptr noundef %18)
  %20 = icmp slt i32 %13, %19
  br i1 %20, label %21, label %29

21:                                               ; preds = %12
  %22 = load ptr, ptr %5, align 8, !tbaa !32
  %23 = getelementptr inbounds nuw %struct.Cnf_Dat_t_, ptr %22, i32 0, i32 0
  %24 = load ptr, ptr %23, align 8, !tbaa !55
  %25 = getelementptr inbounds nuw %struct.Aig_Man_t_, ptr %24, i32 0, i32 3
  %26 = load ptr, ptr %25, align 8, !tbaa !106
  %27 = load i32, ptr %8, align 4, !tbaa !20
  %28 = call ptr @Vec_PtrEntry(ptr noundef %26, i32 noundef %27)
  store ptr %28, ptr %7, align 8, !tbaa !44
  br label %29

29:                                               ; preds = %21, %12
  %30 = phi i1 [ false, %12 ], [ true, %21 ]
  br i1 %30, label %31, label %51

31:                                               ; preds = %29
  %32 = load ptr, ptr %5, align 8, !tbaa !32
  %33 = getelementptr inbounds nuw %struct.Cnf_Dat_t_, ptr %32, i32 0, i32 5
  %34 = load ptr, ptr %33, align 8, !tbaa !45
  %35 = load ptr, ptr %7, align 8, !tbaa !44
  %36 = getelementptr inbounds nuw %struct.Aig_Obj_t_, ptr %35, i32 0, i32 5
  %37 = load i32, ptr %36, align 4, !tbaa !48
  %38 = sext i32 %37 to i64
  %39 = getelementptr inbounds i32, ptr %34, i64 %38
  %40 = load i32, ptr %39, align 4, !tbaa !20
  %41 = call i32 @toLitCond(i32 noundef %40, i32 noundef 0)
  store i32 %41, ptr %9, align 4, !tbaa !20
  %42 = load ptr, ptr %6, align 8, !tbaa !96
  %43 = getelementptr inbounds i32, ptr %9, i64 1
  %44 = call i32 @sat_solver_addclause(ptr noundef %42, ptr noundef %9, ptr noundef %43)
  %45 = icmp ne i32 %44, 0
  br i1 %45, label %47, label %46

46:                                               ; preds = %31
  store i32 0, ptr %3, align 4
  store i32 1, ptr %10, align 4
  br label %52

47:                                               ; preds = %31
  br label %48

48:                                               ; preds = %47
  %49 = load i32, ptr %8, align 4, !tbaa !20
  %50 = add nsw i32 %49, 1
  store i32 %50, ptr %8, align 4, !tbaa !20
  br label %12, !llvm.loop !118

51:                                               ; preds = %29
  store i32 1, ptr %3, align 4
  store i32 1, ptr %10, align 4
  br label %52

52:                                               ; preds = %51, %46
  call void @llvm.lifetime.end.p0(i64 4, ptr %9) #11
  call void @llvm.lifetime.end.p0(i64 4, ptr %8) #11
  call void @llvm.lifetime.end.p0(i64 8, ptr %7) #11
  call void @llvm.lifetime.end.p0(i64 8, ptr %6) #11
  %53 = load i32, ptr %3, align 4
  ret i32 %53
}