; Function Attrs: nounwind uwtable
define range(i32 0, 2) i32 @Cnf_DataWriteAndClauses(ptr noundef %0, ptr noundef readonly captures(none) %1) local_unnamed_addr #0 {
  %3 = alloca i32, align 4
  call void @llvm.lifetime.start.p0(i64 4, ptr nonnull %3) #16
  %4 = load ptr, ptr %1, align 8, !tbaa !47
  %5 = getelementptr inbounds nuw i8, ptr %4, i64 24
  %6 = load ptr, ptr %5, align 8, !tbaa !90
  %7 = getelementptr i8, ptr %6, i64 4
  %.val11 = load i32, ptr %7, align 4, !tbaa !38
  %8 = icmp sgt i32 %.val11, 0
  br i1 %8, label %.lr.ph, label %.critedge

.lr.ph:                                           ; preds = %2
  %9 = getelementptr inbounds nuw i8, ptr %1, i64 32
  %10 = getelementptr inbounds nuw i8, ptr %3, i64 4
  br label %18

11:                                               ; preds = %18
  %indvars.iv.next = add nuw nsw i64 %indvars.iv, 1
  %12 = load ptr, ptr %1, align 8, !tbaa !47
  %13 = getelementptr inbounds nuw i8, ptr %12, i64 24
  %14 = load ptr, ptr %13, align 8, !tbaa !90
  %15 = getelementptr i8, ptr %14, i64 4
  %.val = load i32, ptr %15, align 4, !tbaa !38
  %16 = sext i32 %.val to i64
  %17 = icmp slt i64 %indvars.iv.next, %16
  br i1 %17, label %18, label %.critedge, !llvm.loop !105

18:                                               ; preds = %.lr.ph, %11
  %indvars.iv = phi i64 [ 0, %.lr.ph ], [ %indvars.iv.next, %11 ]
  %19 = phi ptr [ %6, %.lr.ph ], [ %14, %11 ]
  %20 = getelementptr i8, ptr %19, i64 8
  %.val10 = load ptr, ptr %20, align 8, !tbaa !40
  %21 = getelementptr inbounds nuw ptr, ptr %.val10, i64 %indvars.iv
  %22 = load ptr, ptr %21, align 8, !tbaa !41
  %23 = load ptr, ptr %9, align 8, !tbaa !42
  %24 = getelementptr inbounds nuw i8, ptr %22, i64 36
  %25 = load i32, ptr %24, align 4, !tbaa !45
  %26 = sext i32 %25 to i64
  %27 = getelementptr inbounds i32, ptr %23, i64 %26
  %28 = load i32, ptr %27, align 4, !tbaa !28
  %29 = shl nsw i32 %28, 1
  store i32 %29, ptr %3, align 4, !tbaa !28
  %30 = call i32 @sat_solver_addclause(ptr noundef %0, ptr noundef nonnull %3, ptr noundef nonnull %10) #16
  %.not = icmp eq i32 %30, 0
  br i1 %.not, label %.critedge, label %11

.critedge:                                        ; preds = %18, %11, %2
  %.09 = phi i32 [ 1, %2 ], [ 1, %11 ], [ 0, %18 ]
  call void @llvm.lifetime.end.p0(i64 4, ptr nonnull %3) #16
  ret i32 %.09
}